target datalayout = "e-m:e-p270:32:32-p271:32:32-p272:64:64-i64:64-i128:128-f80:128-n8:16:32:64-S128"
target triple = "x86_64-pc-linux-gnu"

%"class.boost::system::error_code" = type { %union.anon.1, i64 }
%union.anon.1 = type { %"struct.boost::system::error_code::data" }
%"struct.boost::system::error_code::data" = type { i32, ptr }

@.str.11 = private unnamed_addr constant [32 x i8] c"boost::filesystem::current_path\00", align 1

; Function Attrs: mustprogress nounwind uwtable
define linkonce_odr hidden void @_ZN5boost6system10error_codeC2Ev(ptr noundef nonnull align 8 dereferenceable(24) %0) unnamed_addr #2 comdat align 2 {
  %2 = alloca ptr, align 8
  store ptr %0, ptr %2, align 8, !tbaa !3
  %3 = load ptr, ptr %2, align 8
  %4 = getelementptr inbounds nuw %"class.boost::system::error_code", ptr %3, i32 0, i32 0
  call void @llvm.memset.p0.i64(ptr align 8 %4, i8 0, i64 16, i1 false)
  %5 = getelementptr inbounds nuw %"class.boost::system::error_code", ptr %3, i32 0, i32 1
  store i64 0, ptr %5, align 8, !tbaa !32
  ret void
}

; Function Attrs: mustprogress nounwind uwtable
define linkonce_odr hidden void @_ZN5boost6system10error_code5clearEv(ptr noundef nonnull align 8 dereferenceable(24) %0) #2 comdat align 2 {
  %2 = alloca ptr, align 8
  %3 = alloca %"class.boost::system::error_code", align 8
  store ptr %0, ptr %2, align 8, !tbaa !3
  %4 = load ptr, ptr %2, align 8
  call void @llvm.lifetime.start.p0(i64 24, ptr %3) #14
  call void @_ZN5boost6system10error_codeC2Ev(ptr noundef nonnull align 8 dereferenceable(24) %3) #14
  call void @llvm.memcpy.p0.p0.i64(ptr align 8 %4, ptr align 8 %3, i64 24, i1 false), !tbaa.struct !21
  call void @llvm.lifetime.end.p0(i64 24, ptr %3) #14
  ret void
}

; Function Attrs: inlinehint mustprogress uwtable
define linkonce_odr hidden noundef zeroext i1 @_ZN5boost10filesystem5errorEiPNS_6system10error_codeEPKc(i32 noundef %0, ptr noundef %1, ptr noundef %2) #0 comdat {
  %4 = alloca i1, align 1
  %5 = alloca i32, align 4
  %6 = alloca ptr, align 8
  %7 = alloca ptr, align 8
  store i32 %0, ptr %5, align 4, !tbaa !7
  store ptr %1, ptr %6, align 8, !tbaa !3
  store ptr %2, ptr %7, align 8, !tbaa !3
  %8 = load i32, ptr %5, align 4, !tbaa !7
  %9 = icmp ne i32 %8, 0
  %10 = xor i1 %9, true
  %11 = zext i1 %10 to i64
  %12 = call i64 @llvm.expect.i64(i64 %11, i64 1)
  %13 = icmp ne i64 %12, 0
  br i1 %13, label %14, label %20

14:                                               ; preds = %3
  %15 = load ptr, ptr %6, align 8, !tbaa !3
  %16 = icmp ne ptr %15, null
  br i1 %16, label %17, label %19

17:                                               ; preds = %14
  %18 = load ptr, ptr %6, align 8, !tbaa !3
  call void @_ZN5boost6system10error_code5clearEv(ptr noundef nonnull align 8 dereferenceable(24) %18) #14
  br label %19

19:                                               ; preds = %17, %14
  store i1 false, ptr %4, align 1
  br label %24

20:                                               ; preds = %3
  %21 = load i32, ptr %5, align 4, !tbaa !7
  %22 = load ptr, ptr %6, align 8, !tbaa !3
  %23 = load ptr, ptr %7, align 8, !tbaa !3
  call void @_ZN5boost10filesystem10emit_errorEiPNS_6system10error_codeEPKc(i32 noundef %21, ptr noundef %22, ptr noundef %23)
  store i1 true, ptr %4, align 1
  br label %24

24:                                               ; preds = %20, %19
  %25 = load i1, ptr %4, align 1
  ret i1 %25
}

; Function Attrs: mustprogress uwtable
define internal noundef zeroext i1 @_ZZN5boost10filesystem6detail12current_pathEPNS_6system10error_codeEEN5local12getcwd_errorES4_(ptr noundef %0) #5 align 2 {
  %2 = alloca ptr, align 8
  %3 = alloca i32, align 4
  store ptr %0, ptr %2, align 8, !tbaa !3
  call void @llvm.lifetime.start.p0(i64 4, ptr %3) #14
  %4 = call ptr @__errno_location() #22
  %5 = load i32, ptr %4, align 4, !tbaa !7
  store i32 %5, ptr %3, align 4, !tbaa !7
  %6 = load i32, ptr %3, align 4, !tbaa !7
  %7 = icmp ne i32 %6, 34
  br i1 %7, label %8, label %10

8:                                                ; preds = %1
  %9 = load i32, ptr %3, align 4, !tbaa !7
  br label %11

10:                                               ; preds = %1
  br label %11

11:                                               ; preds = %10, %8
  %12 = phi i32 [ %9, %8 ], [ 0, %10 ]
  %13 = load ptr, ptr %2, align 8, !tbaa !3
  %14 = call noundef zeroext i1 @_ZN5boost10filesystem5errorEiPNS_6system10error_codeEPKc(i32 noundef %12, ptr noundef %13, ptr noundef @.str.11)
  call void @llvm.lifetime.end.p0(i64 4, ptr %3) #14
  ret i1 %14
}