; Function Attrs: mustprogress uwtable
define internal fastcc noundef zeroext i1 @_ZZN5boost10filesystem6detail12current_pathEPNS_6system10error_codeEEN5local12getcwd_errorES4_(ptr noundef %0) unnamed_addr #5 align 2 {
  %2 = tail call ptr @__errno_location() #30
  %3 = load i32, ptr %2, align 4, !tbaa !19
  %.not = icmp eq i32 %3, 34
  %4 = select i1 %.not, i32 0, i32 %3
  %.not.i = icmp ne i32 %4, 0
  br i1 %.not.i, label %7, label %5, !prof !41

5:                                                ; preds = %1
  %.not7.i = icmp eq ptr %0, null
  br i1 %.not7.i, label %_ZN5boost10filesystem5errorEiPNS_6system10error_codeEPKc.exit, label %6

6:                                                ; preds = %5
  tail call void @llvm.memset.p0.i64(ptr noundef nonnull align 8 dereferenceable(24) %0, i8 0, i64 24, i1 false)
  br label %_ZN5boost10filesystem5errorEiPNS_6system10error_codeEPKc.exit

7:                                                ; preds = %1
  tail call void @_ZN5boost10filesystem10emit_errorEiPNS_6system10error_codeEPKc(i32 noundef %4, ptr noundef %0, ptr noundef nonnull @.str.11)
  br label %_ZN5boost10filesystem5errorEiPNS_6system10error_codeEPKc.exit

_ZN5boost10filesystem5errorEiPNS_6system10error_codeEPKc.exit: ; preds = %5, %6, %7
  ret i1 %.not.i
}